target datalayout = "e-m:e-p270:32:32-p271:32:32-p272:64:64-i64:64-i128:128-f80:128-n8:16:32:64-S128"
target triple = "x86_64-pc-linux-gnu"

%struct.typenode = type { i16, i64, ptr, ptr, ptr, ptr, ptr, ptr, ptr, ptr, ptr }
%struct.typearg = type { ptr, ptr }

; Function Attrs: nounwind uwtable
define dso_local ptr @_nc_Make_Argument(ptr noundef %0, ptr noundef %1, ptr noundef %2) #0 {
  %4 = alloca ptr, align 8
  %5 = alloca ptr, align 8
  %6 = alloca ptr, align 8
  %7 = alloca ptr, align 8
  %8 = alloca ptr, align 8
  %9 = alloca ptr, align 8
  %10 = alloca i32, align 4
  store ptr %0, ptr %5, align 8, !tbaa !4
  store ptr %1, ptr %6, align 8, !tbaa !9
  store ptr %2, ptr %7, align 8, !tbaa !11
  call void @llvm.lifetime.start.p0(i64 8, ptr %8) #7
  store ptr null, ptr %8, align 8, !tbaa !13
  call void @llvm.lifetime.start.p0(i64 8, ptr %9) #7
  %11 = load ptr, ptr %5, align 8, !tbaa !4
  %12 = icmp ne ptr %11, null
  br i1 %12, label %13, label %67

13:                                               ; preds = %3
  %14 = load ptr, ptr %5, align 8, !tbaa !4
  %15 = getelementptr inbounds nuw %struct.typenode, ptr %14, i32 0, i32 0
  %16 = load i16, ptr %15, align 8, !tbaa !15
  %17 = zext i16 %16 to i32
  %18 = and i32 %17, 2
  %19 = icmp ne i32 %18, 0
  br i1 %19, label %20, label %67

20:                                               ; preds = %13
  %21 = load ptr, ptr %5, align 8, !tbaa !4
  %22 = getelementptr inbounds nuw %struct.typenode, ptr %21, i32 0, i32 0
  %23 = load i16, ptr %22, align 8, !tbaa !15
  %24 = zext i16 %23 to i32
  %25 = and i32 %24, 1
  %26 = icmp ne i32 %25, 0
  br i1 %26, label %27, label %54

27:                                               ; preds = %20
  %28 = call noalias ptr @malloc(i64 noundef 16) #8
  store ptr %28, ptr %9, align 8, !tbaa !13
  %29 = load ptr, ptr %9, align 8, !tbaa !13
  %30 = icmp ne ptr %29, null
  br i1 %30, label %31, label %49

31:                                               ; preds = %27
  %32 = load ptr, ptr %5, align 8, !tbaa !4
  %33 = getelementptr inbounds nuw %struct.typenode, ptr %32, i32 0, i32 2
  %34 = load ptr, ptr %33, align 8, !tbaa !19
  %35 = load ptr, ptr %6, align 8, !tbaa !9
  %36 = load ptr, ptr %7, align 8, !tbaa !11
  %37 = call ptr @_nc_Make_Argument(ptr noundef %34, ptr noundef %35, ptr noundef %36)
  %38 = load ptr, ptr %9, align 8, !tbaa !13
  %39 = getelementptr inbounds nuw %struct.typearg, ptr %38, i32 0, i32 0
  store ptr %37, ptr %39, align 8, !tbaa !20
  %40 = load ptr, ptr %5, align 8, !tbaa !4
  %41 = getelementptr inbounds nuw %struct.typenode, ptr %40, i32 0, i32 3
  %42 = load ptr, ptr %41, align 8, !tbaa !22
  %43 = load ptr, ptr %6, align 8, !tbaa !9
  %44 = load ptr, ptr %7, align 8, !tbaa !11
  %45 = call ptr @_nc_Make_Argument(ptr noundef %42, ptr noundef %43, ptr noundef %44)
  %46 = load ptr, ptr %9, align 8, !tbaa !13
  %47 = getelementptr inbounds nuw %struct.typearg, ptr %46, i32 0, i32 1
  store ptr %45, ptr %47, align 8, !tbaa !23
  %48 = load ptr, ptr %9, align 8, !tbaa !13
  store ptr %48, ptr %4, align 8
  store i32 1, ptr %10, align 4
  br label %69

49:                                               ; preds = %27
  %50 = load ptr, ptr %7, align 8, !tbaa !11
  %51 = load i32, ptr %50, align 4, !tbaa !24
  %52 = add nsw i32 %51, 1
  store i32 %52, ptr %50, align 4, !tbaa !24
  br label %53

53:                                               ; preds = %49
  br label %66

54:                                               ; preds = %20
  %55 = load ptr, ptr %5, align 8, !tbaa !4
  %56 = getelementptr inbounds nuw %struct.typenode, ptr %55, i32 0, i32 4
  %57 = load ptr, ptr %56, align 8, !tbaa !26
  %58 = load ptr, ptr %6, align 8, !tbaa !9
  %59 = call ptr %57(ptr noundef %58)
  store ptr %59, ptr %8, align 8, !tbaa !13
  %60 = icmp ne ptr %59, null
  br i1 %60, label %65, label %61

61:                                               ; preds = %54
  %62 = load ptr, ptr %7, align 8, !tbaa !11
  %63 = load i32, ptr %62, align 4, !tbaa !24
  %64 = add nsw i32 %63, 1
  store i32 %64, ptr %62, align 4, !tbaa !24
  br label %65

65:                                               ; preds = %61, %54
  br label %66

66:                                               ; preds = %65, %53
  br label %67

67:                                               ; preds = %66, %13, %3
  %68 = load ptr, ptr %8, align 8, !tbaa !13
  store ptr %68, ptr %4, align 8
  store i32 1, ptr %10, align 4
  br label %69

69:                                               ; preds = %67, %31
  call void @llvm.lifetime.end.p0(i64 8, ptr %9) #7
  call void @llvm.lifetime.end.p0(i64 8, ptr %8) #7
  %70 = load ptr, ptr %4, align 8
  ret ptr %70
}