; Function Attrs: nounwind uwtable
define dso_local ptr @_nc_Make_Argument(ptr noundef readonly %0, ptr noundef %1, ptr noundef %2) local_unnamed_addr #0 {
  %.not = icmp eq ptr %0, null
  br i1 %.not, label %common.ret27, label %4

4:                                                ; preds = %3
  %5 = load i16, ptr %0, align 8, !tbaa !4
  %6 = zext i16 %5 to i32
  %7 = and i32 %6, 2
  %.not23 = icmp eq i32 %7, 0
  br i1 %.not23, label %common.ret27, label %8

8:                                                ; preds = %4
  %9 = and i32 %6, 1
  %.not24 = icmp eq i32 %9, 0
  br i1 %.not24, label %23, label %10

10:                                               ; preds = %8
  %11 = tail call noalias dereferenceable_or_null(16) ptr @malloc(i64 noundef 16) #7
  %.not26 = icmp eq ptr %11, null
  br i1 %.not26, label %20, label %12

common.ret27:                                     ; preds = %3, %4, %23, %27, %20, %12
  %common.ret27.op = phi ptr [ %11, %12 ], [ null, %20 ], [ %26, %23 ], [ null, %27 ], [ null, %4 ], [ null, %3 ]
  ret ptr %common.ret27.op

12:                                               ; preds = %10
  %13 = getelementptr inbounds nuw i8, ptr %0, i64 16
  %14 = load ptr, ptr %13, align 8, !tbaa !12
  %15 = tail call ptr @_nc_Make_Argument(ptr noundef %14, ptr noundef %1, ptr noundef %2)
  store ptr %15, ptr %11, align 8, !tbaa !13
  %16 = getelementptr inbounds nuw i8, ptr %0, i64 24
  %17 = load ptr, ptr %16, align 8, !tbaa !16
  %18 = tail call ptr @_nc_Make_Argument(ptr noundef %17, ptr noundef %1, ptr noundef %2)
  %19 = getelementptr inbounds nuw i8, ptr %11, i64 8
  store ptr %18, ptr %19, align 8, !tbaa !17
  br label %common.ret27

20:                                               ; preds = %10
  %21 = load i32, ptr %2, align 4, !tbaa !18
  %22 = add nsw i32 %21, 1
  store i32 %22, ptr %2, align 4, !tbaa !18
  br label %common.ret27

23:                                               ; preds = %8
  %24 = getelementptr inbounds nuw i8, ptr %0, i64 32
  %25 = load ptr, ptr %24, align 8, !tbaa !20
  %26 = tail call ptr %25(ptr noundef %1) #8
  %.not25 = icmp eq ptr %26, null
  br i1 %.not25, label %27, label %common.ret27

27:                                               ; preds = %23
  %28 = load i32, ptr %2, align 4, !tbaa !18
  %29 = add nsw i32 %28, 1
  store i32 %29, ptr %2, align 4, !tbaa !18
  br label %common.ret27
}